; Function Attrs: null_pointer_is_valid sspstrong uwtable
define internal i32 @dissect_f1ap_SuccessfulOutcome_value(ptr noundef %0, i32 noundef %1, ptr noundef %2, ptr noundef %3, i32 noundef %4) #0 {
  %6 = getelementptr inbounds nuw i8, ptr %2, i64 16
  %7 = load ptr, ptr %6, align 8
  %8 = tail call ptr @wmem_file_scope()
  %9 = load i32, ptr @proto_f1ap, align 4
  %10 = tail call ptr @p_get_proto_data(ptr noundef %8, ptr noundef %7, i32 noundef %9, i32 noundef 0)
  %.not.i = icmp eq ptr %10, null
  br i1 %.not.i, label %11, label %f1ap_get_private_data.exit

11:                                               ; preds = %5
  %12 = tail call ptr @wmem_file_scope()
  %13 = tail call noalias dereferenceable_or_null(48) ptr @wmem_alloc0(ptr noundef %12, i64 noundef 48) #7
  %14 = getelementptr inbounds nuw i8, ptr %13, i64 28
  store i32 -1, ptr %14, align 4
  %15 = getelementptr inbounds nuw i8, ptr %13, i64 32
  store i32 1, ptr %15, align 8
  %16 = tail call ptr @wmem_file_scope()
  %17 = load i32, ptr @proto_f1ap, align 4
  tail call void @p_add_proto_data(ptr noundef %16, ptr noundef %7, i32 noundef %17, i32 noundef 0, ptr noundef %13)
  br label %f1ap_get_private_data.exit

f1ap_get_private_data.exit:                       ; preds = %5, %11
  %.0.i = phi ptr [ %10, %5 ], [ %13, %11 ]
  store i32 1, ptr %.0.i, align 8
  %18 = tail call i32 @dissect_per_open_type_pdu_new(ptr noundef %0, i32 noundef %1, ptr noundef %2, ptr noundef %3, i32 noundef %4, ptr noundef nonnull @dissect_SuccessfulOutcomeValue)
  ret i32 %18
}